target datalayout = "e-m:e-p270:32:32-p271:32:32-p272:64:64-i64:64-i128:128-f80:128-n8:16:32:64-S128"
target triple = "x86_64-unknown-linux-gnu"

%struct.ecc_set_type = type { i32, i32, ptr, ptr, ptr, ptr, ptr, ptr, ptr, ptr, i32, i32, i32 }
%struct.ecc_key = type { i32, i32, i32, i32, ptr, ptr, %struct.ecc_point, [1 x %struct.sp_int], ptr }
%struct.ecc_point = type { [1 x %struct.sp_int], [1 x %struct.sp_int], [1 x %struct.sp_int] }
%struct.sp_int = type { i32, i32, [129 x i64] }

; Function Attrs: nounwind uwtable
define i32 @wc_ecc_is_valid_idx(i32 noundef %n) #0 {
entry:
  %retval = alloca i32, align 4
  %n.addr = alloca i32, align 4
  %x = alloca i32, align 4
  store i32 %n, ptr %n.addr, align 4
  %0 = load i32, ptr %n.addr, align 4
  %cmp = icmp sge i32 %0, 6
  br i1 %cmp, label %if.then, label %if.end

if.then:                                          ; preds = %entry
  store i32 0, ptr %retval, align 4
  br label %return

if.end:                                           ; preds = %entry
  store i32 0, ptr %x, align 4
  br label %for.cond

for.cond:                                         ; preds = %for.inc, %if.end
  %1 = load i32, ptr %x, align 4
  %idxprom = sext i32 %1 to i64
  %arrayidx = getelementptr inbounds [6 x %struct.ecc_set_type], ptr @ecc_sets, i64 0, i64 %idxprom
  %size = getelementptr inbounds %struct.ecc_set_type, ptr %arrayidx, i32 0, i32 0
  %2 = load i32, ptr %size, align 8
  %cmp1 = icmp ne i32 %2, 0
  br i1 %cmp1, label %for.body, label %for.end

for.body:                                         ; preds = %for.cond
  br label %for.inc

for.inc:                                          ; preds = %for.body
  %3 = load i32, ptr %x, align 4
  %inc = add nsw i32 %3, 1
  store i32 %inc, ptr %x, align 4
  br label %for.cond, !llvm.loop !12

for.end:                                          ; preds = %for.cond
  %4 = load i32, ptr %n.addr, align 4
  %cmp2 = icmp sge i32 %4, -1
  br i1 %cmp2, label %land.lhs.true, label %if.end5

land.lhs.true:                                    ; preds = %for.end
  %5 = load i32, ptr %n.addr, align 4
  %6 = load i32, ptr %x, align 4
  %cmp3 = icmp slt i32 %5, %6
  br i1 %cmp3, label %if.then4, label %if.end5

if.then4:                                         ; preds = %land.lhs.true
  store i32 1, ptr %retval, align 4
  br label %return

if.end5:                                          ; preds = %land.lhs.true, %for.end
  store i32 0, ptr %retval, align 4
  br label %return

return:                                           ; preds = %if.end5, %if.then4, %if.then
  %7 = load i32, ptr %retval, align 4
  ret i32 %7
}

; Function Attrs: nounwind uwtable
define i32 @wc_ecc_export_ex(ptr noundef %key, ptr noundef %qx, ptr noundef %qxLen, ptr noundef %qy, ptr noundef %qyLen, ptr noundef %d, ptr noundef %dLen, i32 noundef %encType) #0 {
entry:
  %retval = alloca i32, align 4
  %key.addr = alloca ptr, align 8
  %qx.addr = alloca ptr, align 8
  %qxLen.addr = alloca ptr, align 8
  %qy.addr = alloca ptr, align 8
  %qyLen.addr = alloca ptr, align 8
  %d.addr = alloca ptr, align 8
  %dLen.addr = alloca ptr, align 8
  %encType.addr = alloca i32, align 4
  %err = alloca i32, align 4
  %keySz = alloca i32, align 4
  store ptr %key, ptr %key.addr, align 8
  store ptr %qx, ptr %qx.addr, align 8
  store ptr %qxLen, ptr %qxLen.addr, align 8
  store ptr %qy, ptr %qy.addr, align 8
  store ptr %qyLen, ptr %qyLen.addr, align 8
  store ptr %d, ptr %d.addr, align 8
  store ptr %dLen, ptr %dLen.addr, align 8
  store i32 %encType, ptr %encType.addr, align 4
  store i32 0, ptr %err, align 4
  %0 = load ptr, ptr %key.addr, align 8
  %cmp = icmp eq ptr %0, null
  br i1 %cmp, label %if.then, label %if.end

if.then:                                          ; preds = %entry
  store i32 -173, ptr %retval, align 4
  br label %return

if.end:                                           ; preds = %entry
  %1 = load ptr, ptr %key.addr, align 8
  %idx = getelementptr inbounds %struct.ecc_key, ptr %1, i32 0, i32 1
  %2 = load i32, ptr %idx, align 4
  %call = call i32 @wc_ecc_is_valid_idx(i32 noundef %2)
  %cmp1 = icmp eq i32 %call, 0
  br i1 %cmp1, label %if.then3, label %lor.lhs.false

lor.lhs.false:                                    ; preds = %if.end
  %3 = load ptr, ptr %key.addr, align 8
  %dp = getelementptr inbounds %struct.ecc_key, ptr %3, i32 0, i32 4
  %4 = load ptr, ptr %dp, align 8
  %cmp2 = icmp eq ptr %4, null
  br i1 %cmp2, label %if.then3, label %if.end4

if.then3:                                         ; preds = %lor.lhs.false, %if.end
  store i32 -170, ptr %retval, align 4
  br label %return

if.end4:                                          ; preds = %lor.lhs.false
  %5 = load ptr, ptr %key.addr, align 8
  %dp5 = getelementptr inbounds %struct.ecc_key, ptr %5, i32 0, i32 4
  %6 = load ptr, ptr %dp5, align 8
  %size = getelementptr inbounds %struct.ecc_set_type, ptr %6, i32 0, i32 0
  %7 = load i32, ptr %size, align 8
  store i32 %7, ptr %keySz, align 4
  %8 = load ptr, ptr %d.addr, align 8
  %cmp6 = icmp ne ptr %8, null
  br i1 %cmp6, label %if.then7, label %if.end19

if.then7:                                         ; preds = %if.end4
  %9 = load ptr, ptr %dLen.addr, align 8
  %cmp8 = icmp eq ptr %9, null
  br i1 %cmp8, label %if.then13, label %lor.lhs.false9

lor.lhs.false9:                                   ; preds = %if.then7
  %10 = load ptr, ptr %key.addr, align 8
  %type = getelementptr inbounds %struct.ecc_key, ptr %10, i32 0, i32 0
  %11 = load i32, ptr %type, align 8
  %cmp10 = icmp ne i32 %11, 2
  br i1 %cmp10, label %land.lhs.true, label %if.end14

land.lhs.true:                                    ; preds = %lor.lhs.false9
  %12 = load ptr, ptr %key.addr, align 8
  %type11 = getelementptr inbounds %struct.ecc_key, ptr %12, i32 0, i32 0
  %13 = load i32, ptr %type11, align 8
  %cmp12 = icmp ne i32 %13, 3
  br i1 %cmp12, label %if.then13, label %if.end14

if.then13:                                        ; preds = %land.lhs.true, %if.then7
  store i32 -173, ptr %retval, align 4
  br label %return

if.end14:                                         ; preds = %land.lhs.true, %lor.lhs.false9
  %14 = load ptr, ptr %key.addr, align 8
  %k = getelementptr inbounds %struct.ecc_key, ptr %14, i32 0, i32 7
  %arraydecay = getelementptr inbounds [1 x %struct.sp_int], ptr %k, i64 0, i64 0
  %15 = load ptr, ptr %d.addr, align 8
  %16 = load ptr, ptr %dLen.addr, align 8
  %17 = load i32, ptr %keySz, align 4
  %18 = load i32, ptr %encType.addr, align 4
  %call15 = call i32 @wc_export_int(ptr noundef %arraydecay, ptr noundef %15, ptr noundef %16, i32 noundef %17, i32 noundef %18)
  store i32 %call15, ptr %err, align 4
  %19 = load i32, ptr %err, align 4
  %cmp16 = icmp ne i32 %19, 0
  br i1 %cmp16, label %if.then17, label %if.end18

if.then17:                                        ; preds = %if.end14
  %20 = load i32, ptr %err, align 4
  store i32 %20, ptr %retval, align 4
  br label %return

if.end18:                                         ; preds = %if.end14
  br label %if.end19

if.end19:                                         ; preds = %if.end18, %if.end4
  %21 = load ptr, ptr %qx.addr, align 8
  %cmp20 = icmp ne ptr %21, null
  br i1 %cmp20, label %if.then21, label %if.end33

if.then21:                                        ; preds = %if.end19
  %22 = load ptr, ptr %qxLen.addr, align 8
  %cmp22 = icmp eq ptr %22, null
  br i1 %cmp22, label %if.then26, label %lor.lhs.false23

lor.lhs.false23:                                  ; preds = %if.then21
  %23 = load ptr, ptr %key.addr, align 8
  %type24 = getelementptr inbounds %struct.ecc_key, ptr %23, i32 0, i32 0
  %24 = load i32, ptr %type24, align 8
  %cmp25 = icmp eq i32 %24, 3
  br i1 %cmp25, label %if.then26, label %if.end27

if.then26:                                        ; preds = %lor.lhs.false23, %if.then21
  store i32 -173, ptr %retval, align 4
  br label %return

if.end27:                                         ; preds = %lor.lhs.false23
  %25 = load ptr, ptr %key.addr, align 8
  %pubkey = getelementptr inbounds %struct.ecc_key, ptr %25, i32 0, i32 6
  %x = getelementptr inbounds %struct.ecc_point, ptr %pubkey, i32 0, i32 0
  %arraydecay28 = getelementptr inbounds [1 x %struct.sp_int], ptr %x, i64 0, i64 0
  %26 = load ptr, ptr %qx.addr, align 8
  %27 = load ptr, ptr %qxLen.addr, align 8
  %28 = load i32, ptr %keySz, align 4
  %29 = load i32, ptr %encType.addr, align 4
  %call29 = call i32 @wc_export_int(ptr noundef %arraydecay28, ptr noundef %26, ptr noundef %27, i32 noundef %28, i32 noundef %29)
  store i32 %call29, ptr %err, align 4
  %30 = load i32, ptr %err, align 4
  %cmp30 = icmp ne i32 %30, 0
  br i1 %cmp30, label %if.then31, label %if.end32

if.then31:                                        ; preds = %if.end27
  %31 = load i32, ptr %err, align 4
  store i32 %31, ptr %retval, align 4
  br label %return

if.end32:                                         ; preds = %if.end27
  br label %if.end33

if.end33:                                         ; preds = %if.end32, %if.end19
  %32 = load ptr, ptr %qy.addr, align 8
  %cmp34 = icmp ne ptr %32, null
  br i1 %cmp34, label %if.then35, label %if.end48

if.then35:                                        ; preds = %if.end33
  %33 = load ptr, ptr %qyLen.addr, align 8
  %cmp36 = icmp eq ptr %33, null
  br i1 %cmp36, label %if.then40, label %lor.lhs.false37

lor.lhs.false37:                                  ; preds = %if.then35
  %34 = load ptr, ptr %key.addr, align 8
  %type38 = getelementptr inbounds %struct.ecc_key, ptr %34, i32 0, i32 0
  %35 = load i32, ptr %type38, align 8
  %cmp39 = icmp eq i32 %35, 3
  br i1 %cmp39, label %if.then40, label %if.end41

if.then40:                                        ; preds = %lor.lhs.false37, %if.then35
  store i32 -173, ptr %retval, align 4
  br label %return

if.end41:                                         ; preds = %lor.lhs.false37
  %36 = load ptr, ptr %key.addr, align 8
  %pubkey42 = getelementptr inbounds %struct.ecc_key, ptr %36, i32 0, i32 6
  %y = getelementptr inbounds %struct.ecc_point, ptr %pubkey42, i32 0, i32 1
  %arraydecay43 = getelementptr inbounds [1 x %struct.sp_int], ptr %y, i64 0, i64 0
  %37 = load ptr, ptr %qy.addr, align 8
  %38 = load ptr, ptr %qyLen.addr, align 8
  %39 = load i32, ptr %keySz, align 4
  %40 = load i32, ptr %encType.addr, align 4
  %call44 = call i32 @wc_export_int(ptr noundef %arraydecay43, ptr noundef %37, ptr noundef %38, i32 noundef %39, i32 noundef %40)
  store i32 %call44, ptr %err, align 4
  %41 = load i32, ptr %err, align 4
  %cmp45 = icmp ne i32 %41, 0
  br i1 %cmp45, label %if.then46, label %if.end47

if.then46:                                        ; preds = %if.end41
  %42 = load i32, ptr %err, align 4
  store i32 %42, ptr %retval, align 4
  br label %return

if.end47:                                         ; preds = %if.end41
  br label %if.end48

if.end48:                                         ; preds = %if.end47, %if.end33
  %43 = load i32, ptr %err, align 4
  store i32 %43, ptr %retval, align 4
  br label %return

return:                                           ; preds = %if.end48, %if.then46, %if.then40, %if.then31, %if.then26, %if.then17, %if.then13, %if.then3, %if.then
  %44 = load i32, ptr %retval, align 4
  ret i32 %44
}

; Function Attrs: nounwind uwtable
define i32 @wc_ecc_export_private_only(ptr noundef %key, ptr noundef %out, ptr noundef %outLen) #0 {
entry:
  %retval = alloca i32, align 4
  %key.addr = alloca ptr, align 8
  %out.addr = alloca ptr, align 8
  %outLen.addr = alloca ptr, align 8
  store ptr %key, ptr %key.addr, align 8
  store ptr %out, ptr %out.addr, align 8
  store ptr %outLen, ptr %outLen.addr, align 8
  %0 = load ptr, ptr %out.addr, align 8
  %cmp = icmp eq ptr %0, null
  br i1 %cmp, label %if.then, label %lor.lhs.false

lor.lhs.false:                                    ; preds = %entry
  %1 = load ptr, ptr %outLen.addr, align 8
  %cmp1 = icmp eq ptr %1, null
  br i1 %cmp1, label %if.then, label %if.end

if.then:                                          ; preds = %lor.lhs.false, %entry
  store i32 -173, ptr %retval, align 4
  br label %return

if.end:                                           ; preds = %lor.lhs.false
  %2 = load ptr, ptr %key.addr, align 8
  %3 = load ptr, ptr %out.addr, align 8
  %4 = load ptr, ptr %outLen.addr, align 8
  %call = call i32 @wc_ecc_export_ex(ptr noundef %2, ptr noundef null, ptr noundef null, ptr noundef null, ptr noundef null, ptr noundef %3, ptr noundef %4, i32 noundef 2)
  store i32 %call, ptr %retval, align 4
  br label %return

return:                                           ; preds = %if.end, %if.then
  %5 = load i32, ptr %retval, align 4
  ret i32 %5
}