; Function Attrs: nounwind uwtable
define i32 @wc_ecc_export_private_only(ptr noundef %key, ptr noundef %out, ptr noundef %outLen) local_unnamed_addr #2 {
entry:
  %cmp = icmp eq ptr %out, null
  %cmp1 = icmp eq ptr %outLen, null
  %or.cond = or i1 %cmp, %cmp1
  %cmp.i = icmp eq ptr %key, null
  %or.cond3 = or i1 %cmp.i, %or.cond
  br i1 %or.cond3, label %return, label %if.end.i

if.end.i:                                         ; preds = %entry
  %idx.i = getelementptr inbounds nuw i8, ptr %key, i64 4
  %0 = load i32, ptr %idx.i, align 4
  %1 = add i32 %0, -5
  %narrow.i.i = icmp ult i32 %1, -6
  br i1 %narrow.i.i, label %return, label %lor.lhs.false.i

lor.lhs.false.i:                                  ; preds = %if.end.i
  %dp.i = getelementptr inbounds nuw i8, ptr %key, i64 16
  %2 = load ptr, ptr %dp.i, align 8
  %cmp2.i = icmp eq ptr %2, null
  br i1 %cmp2.i, label %return, label %lor.lhs.false9.i

lor.lhs.false9.i:                                 ; preds = %lor.lhs.false.i
  %3 = load i32, ptr %key, align 8
  %4 = and i32 %3, -2
  %switch.i = icmp eq i32 %4, 2
  br i1 %switch.i, label %if.end14.i, label %return

if.end14.i:                                       ; preds = %lor.lhs.false9.i
  %5 = load i32, ptr %2, align 8
  %k.i = getelementptr inbounds nuw i8, ptr %key, i64 3152
  %call15.i = tail call i32 @wc_export_int(ptr noundef nonnull %k.i, ptr noundef nonnull %out, ptr noundef nonnull %outLen, i32 noundef %5, i32 noundef 2) #19
  br label %return

return:                                           ; preds = %if.end14.i, %lor.lhs.false9.i, %lor.lhs.false.i, %if.end.i, %entry
  %retval.0 = phi i32 [ -173, %entry ], [ -170, %lor.lhs.false.i ], [ -170, %if.end.i ], [ -173, %lor.lhs.false9.i ], [ %call15.i, %if.end14.i ]
  ret i32 %retval.0
}